target datalayout = "e-m:e-p270:32:32-p271:32:32-p272:64:64-i64:64-i128:128-f80:128-n8:16:32:64-S128"
target triple = "x86_64-pc-linux-gnu"

%struct.signature_check = type { ptr, i64, i32, i64, ptr, ptr, i8, ptr, ptr, ptr, ptr, i32 }

@stdout = external global ptr, align 8
@stderr = external global ptr, align 8

; Function Attrs: nounwind uwtable
define dso_local void @print_signature_buffer(ptr noundef %0, i32 noundef %1) #0 {
  %3 = alloca ptr, align 8
  %4 = alloca i32, align 4
  %5 = alloca ptr, align 8
  store ptr %0, ptr %3, align 8, !tbaa !4
  store i32 %1, ptr %4, align 4, !tbaa !29
  call void @llvm.lifetime.start.p0(i64 8, ptr %5) #8
  %6 = load i32, ptr %4, align 4, !tbaa !29
  %7 = and i32 %6, 2
  %8 = icmp ne i32 %7, 0
  br i1 %8, label %9, label %13

9:                                                ; preds = %2
  %10 = load ptr, ptr %3, align 8, !tbaa !4
  %11 = getelementptr inbounds nuw %struct.signature_check, ptr %10, i32 0, i32 5
  %12 = load ptr, ptr %11, align 8, !tbaa !15
  br label %17

13:                                               ; preds = %2
  %14 = load ptr, ptr %3, align 8, !tbaa !4
  %15 = getelementptr inbounds nuw %struct.signature_check, ptr %14, i32 0, i32 4
  %16 = load ptr, ptr %15, align 8, !tbaa !14
  br label %17

17:                                               ; preds = %13, %9
  %18 = phi ptr [ %12, %9 ], [ %16, %13 ]
  store ptr %18, ptr %5, align 8, !tbaa !20
  %19 = load i32, ptr %4, align 4, !tbaa !29
  %20 = and i32 %19, 1
  %21 = icmp ne i32 %20, 0
  br i1 %21, label %22, label %36

22:                                               ; preds = %17
  %23 = load ptr, ptr %3, align 8, !tbaa !4
  %24 = getelementptr inbounds nuw %struct.signature_check, ptr %23, i32 0, i32 0
  %25 = load ptr, ptr %24, align 8, !tbaa !9
  %26 = icmp ne ptr %25, null
  br i1 %26, label %27, label %36

27:                                               ; preds = %22
  %28 = load ptr, ptr %3, align 8, !tbaa !4
  %29 = getelementptr inbounds nuw %struct.signature_check, ptr %28, i32 0, i32 0
  %30 = load ptr, ptr %29, align 8, !tbaa !9
  %31 = load ptr, ptr %3, align 8, !tbaa !4
  %32 = getelementptr inbounds nuw %struct.signature_check, ptr %31, i32 0, i32 1
  %33 = load i64, ptr %32, align 8, !tbaa !40
  %34 = load ptr, ptr @stdout, align 8, !tbaa !41
  %35 = call i64 @fwrite(ptr noundef %30, i64 noundef 1, i64 noundef %33, ptr noundef %34)
  br label %36

36:                                               ; preds = %27, %22, %17
  %37 = load ptr, ptr %5, align 8, !tbaa !20
  %38 = icmp ne ptr %37, null
  br i1 %38, label %39, label %43

39:                                               ; preds = %36
  %40 = load ptr, ptr %5, align 8, !tbaa !20
  %41 = load ptr, ptr @stderr, align 8, !tbaa !41
  %42 = call i32 @fputs(ptr noundef %40, ptr noundef %41)
  br label %43

43:                                               ; preds = %39, %36
  call void @llvm.lifetime.end.p0(i64 8, ptr %5) #8
  ret void
}