; Function Attrs: nofree nounwind uwtable
define dso_local void @print_signature_buffer(ptr noundef readonly captures(none) %0, i32 noundef %1) local_unnamed_addr #6 {
  %3 = and i32 %1, 2
  %.not = icmp eq i32 %3, 0
  %.in.v = select i1 %.not, i64 32, i64 40
  %.in = getelementptr inbounds nuw i8, ptr %0, i64 %.in.v
  %4 = load ptr, ptr %.in, align 8, !tbaa !25
  %5 = and i32 %1, 1
  %.not9 = icmp eq i32 %5, 0
  br i1 %.not9, label %13, label %6

6:                                                ; preds = %2
  %7 = load ptr, ptr %0, align 8, !tbaa !4
  %.not10 = icmp eq ptr %7, null
  br i1 %.not10, label %13, label %8

8:                                                ; preds = %6
  %9 = getelementptr inbounds nuw i8, ptr %0, i64 8
  %10 = load i64, ptr %9, align 8, !tbaa !34
  %11 = load ptr, ptr @stdout, align 8, !tbaa !35
  %12 = tail call i64 @fwrite(ptr noundef nonnull %7, i64 noundef 1, i64 noundef %10, ptr noundef %11)
  br label %13

13:                                               ; preds = %8, %6, %2
  %.not11 = icmp eq ptr %4, null
  br i1 %.not11, label %17, label %14

14:                                               ; preds = %13
  %15 = load ptr, ptr @stderr, align 8, !tbaa !35
  %16 = tail call i32 @fputs(ptr noundef nonnull %4, ptr noundef %15) #17
  br label %17

17:                                               ; preds = %14, %13
  ret void
}